; ModuleID = 'source-C-CXX/3/1606.c'
source_filename = "source-C-CXX/3/1606.c"
target datalayout = "e-m:e-p270:32:32-p271:32:32-p272:64:64-i64:64-f80:128-n8:16:32:64-S128"
target triple = "x86_64-pc-linux-gnu"

@.str = private unnamed_addr constant [6 x i8] c"%d %d\00", align 1
@.str.1 = private unnamed_addr constant [3 x i8] c"%d\00", align 1
@.str.2 = private unnamed_addr constant [4 x i8] c"%d\0A\00", align 1

; Function Attrs: nofree nounwind sspstrong uwtable
define dso_local i32 @main() local_unnamed_addr #0 {
  %1 = alloca [100 x [100 x i32]], align 16
  %2 = alloca i32, align 4
  %3 = alloca i32, align 4
  %4 = bitcast [100 x [100 x i32]]* %1 to i8*
  call void @llvm.lifetime.start.p0i8(i64 40000, i8* nonnull %4) #3
  %5 = bitcast i32* %2 to i8*
  call void @llvm.lifetime.start.p0i8(i64 4, i8* nonnull %5) #3
  %6 = bitcast i32* %3 to i8*
  call void @llvm.lifetime.start.p0i8(i64 4, i8* nonnull %6) #3
  %7 = call i32 (i8*, ...) @__isoc99_scanf(i8* getelementptr inbounds ([6 x i8], [6 x i8]* @.str, i64 0, i64 0), i32* nonnull %3, i32* nonnull %2)
  %8 = load i32, i32* %3, align 4, !tbaa !5
  %9 = icmp sgt i32 %8, 0
  %10 = load i32, i32* %2, align 4, !tbaa !5
  br i1 %9, label %11, label %18

11:                                               ; preds = %0
  %12 = icmp sgt i32 %10, 0
  br i1 %12, label %13, label %41

13:                                               ; preds = %11, %32
  %14 = phi i32 [ %33, %32 ], [ %8, %11 ]
  %15 = phi i32 [ %34, %32 ], [ %10, %11 ]
  %16 = phi i64 [ %35, %32 ], [ 0, %11 ]
  %17 = icmp sgt i32 %15, 0
  br i1 %17, label %22, label %32

18:                                               ; preds = %32, %0
  %19 = phi i32 [ %8, %0 ], [ %33, %32 ]
  %20 = phi i32 [ %10, %0 ], [ %34, %32 ]
  %21 = icmp sgt i32 %20, 0
  br i1 %21, label %38, label %41

22:                                               ; preds = %13, %22
  %23 = phi i64 [ %26, %22 ], [ 0, %13 ]
  %24 = getelementptr inbounds [100 x [100 x i32]], [100 x [100 x i32]]* %1, i64 0, i64 %16, i64 %23
  %25 = call i32 (i8*, ...) @__isoc99_scanf(i8* getelementptr inbounds ([3 x i8], [3 x i8]* @.str.1, i64 0, i64 0), i32* nonnull %24)
  %26 = add nuw nsw i64 %23, 1
  %27 = load i32, i32* %2, align 4, !tbaa !5
  %28 = sext i32 %27 to i64
  %29 = icmp slt i64 %26, %28
  br i1 %29, label %22, label %30, !llvm.loop !9

30:                                               ; preds = %22
  %31 = load i32, i32* %3, align 4, !tbaa !5
  br label %32

32:                                               ; preds = %30, %13
  %33 = phi i32 [ %31, %30 ], [ %14, %13 ]
  %34 = phi i32 [ %27, %30 ], [ %15, %13 ]
  %35 = add nuw nsw i64 %16, 1
  %36 = sext i32 %33 to i64
  %37 = icmp slt i64 %35, %36
  br i1 %37, label %13, label %18, !llvm.loop !11

38:                                               ; preds = %18, %58
  %39 = phi i64 [ %62, %58 ], [ 0, %18 ]
  %40 = phi i32 [ %59, %58 ], [ 0, %18 ]
  br label %45

41:                                               ; preds = %58, %11, %18
  %42 = phi i32 [ %20, %18 ], [ %10, %11 ], [ %60, %58 ]
  %43 = phi i32 [ %19, %18 ], [ %8, %11 ], [ %54, %58 ]
  %44 = icmp sgt i32 %43, 1
  br i1 %44, label %63, label %87

45:                                               ; preds = %38, %45
  %46 = phi i64 [ %39, %38 ], [ %52, %45 ]
  %47 = phi i64 [ 0, %38 ], [ %51, %45 ]
  %48 = getelementptr inbounds [100 x [100 x i32]], [100 x [100 x i32]]* %1, i64 0, i64 %47, i64 %46
  %49 = load i32, i32* %48, align 4, !tbaa !5
  %50 = call i32 (i8*, ...) @printf(i8* nonnull dereferenceable(1) getelementptr inbounds ([4 x i8], [4 x i8]* @.str.2, i64 0, i64 0), i32 %49)
  %51 = add nuw nsw i64 %47, 1
  %52 = add nsw i64 %46, -1
  %53 = icmp ne i64 %46, 0
  %54 = load i32, i32* %3, align 4
  %55 = sext i32 %54 to i64
  %56 = icmp slt i64 %51, %55
  %57 = select i1 %53, i1 %56, i1 false
  br i1 %57, label %45, label %58, !llvm.loop !13

58:                                               ; preds = %45
  %59 = add nuw nsw i32 %40, 1
  %60 = load i32, i32* %2, align 4, !tbaa !5
  %61 = icmp slt i32 %59, %60
  %62 = add nuw nsw i64 %39, 1
  br i1 %61, label %38, label %41, !llvm.loop !14

63:                                               ; preds = %41, %84
  %64 = phi i32 [ %86, %84 ], [ %42, %41 ]
  %65 = phi i64 [ %85, %84 ], [ 1, %41 ]
  %66 = phi i32 [ %82, %84 ], [ 1, %41 ]
  %67 = sext i32 %64 to i64
  br label %68

68:                                               ; preds = %68, %63
  %69 = phi i64 [ %71, %68 ], [ %67, %63 ]
  %70 = phi i64 [ %75, %68 ], [ %65, %63 ]
  %71 = add nsw i64 %69, -1
  %72 = getelementptr inbounds [100 x [100 x i32]], [100 x [100 x i32]]* %1, i64 0, i64 %70, i64 %71
  %73 = load i32, i32* %72, align 4, !tbaa !5
  %74 = call i32 (i8*, ...) @printf(i8* nonnull dereferenceable(1) getelementptr inbounds ([4 x i8], [4 x i8]* @.str.2, i64 0, i64 0), i32 %73)
  %75 = add nuw nsw i64 %70, 1
  %76 = icmp ne i64 %71, 0
  %77 = load i32, i32* %3, align 4
  %78 = trunc i64 %75 to i32
  %79 = icmp sgt i32 %77, %78
  %80 = select i1 %76, i1 %79, i1 false
  br i1 %80, label %68, label %81, !llvm.loop !15

81:                                               ; preds = %68
  %82 = add nuw nsw i32 %66, 1
  %83 = icmp slt i32 %82, %77
  br i1 %83, label %84, label %87, !llvm.loop !16

84:                                               ; preds = %81
  %85 = add nuw nsw i64 %65, 1
  %86 = load i32, i32* %2, align 4, !tbaa !5
  br label %63

87:                                               ; preds = %81, %41
  call void @llvm.lifetime.end.p0i8(i64 4, i8* nonnull %6) #3
  call void @llvm.lifetime.end.p0i8(i64 4, i8* nonnull %5) #3
  call void @llvm.lifetime.end.p0i8(i64 40000, i8* nonnull %4) #3
  ret i32 0
}

; Function Attrs: argmemonly mustprogress nofree nosync nounwind willreturn
declare void @llvm.lifetime.start.p0i8(i64 immarg, i8* nocapture) #1

; Function Attrs: nofree nounwind
declare noundef i32 @__isoc99_scanf(i8* nocapture noundef readonly, ...) local_unnamed_addr #2

; Function Attrs: nofree nounwind
declare noundef i32 @printf(i8* nocapture noundef readonly, ...) local_unnamed_addr #2

; Function Attrs: argmemonly mustprogress nofree nosync nounwind willreturn
declare void @llvm.lifetime.end.p0i8(i64 immarg, i8* nocapture) #1


!llvm.module.flags = !{!0, !1, !2, !3}
!llvm.ident = !{!4}

!0 = !{i32 1, !"wchar_size", i32 4}
!1 = !{i32 7, !"PIC Level", i32 2}
!2 = !{i32 7, !"PIE Level", i32 2}
!3 = !{i32 7, !"uwtable", i32 1}
!4 = !{!"clang version 13.0.0"}
!5 = !{!6, !6, i64 0}
!6 = !{!"int", !7, i64 0}
!7 = !{!"omnipotent char", !8, i64 0}
!8 = !{!"Simple C/C++ TBAA"}
!9 = distinct !{!9, !10}
!10 = !{!"llvm.loop.mustprogress"}
!11 = distinct !{!11, !10, !12}
!12 = !{!"llvm.loop.unswitch.partial.disable"}
!13 = distinct !{!13, !10}
!14 = distinct !{!14, !10}
!15 = distinct !{!15, !10}
!16 = distinct !{!16, !10}
